; Function Attrs: mustprogress nofree norecurse nosync nounwind willreturn memory(read, argmem: readwrite, inaccessiblemem: none) uwtable
define hidden void @_ZN19OpenColorIO_v2_5dev16RangeMinRendererC2ERSt10shared_ptrIKNS_11RangeOpDataEE(ptr noundef nonnull writeonly align 8 captures(none) dereferenceable(24) initializes((0, 24)) %0, ptr noundef nonnull readonly align 8 captures(none) dereferenceable(16) %1) unnamed_addr #3 align 2 personality ptr @__gxx_personality_v0 {
  %3 = getelementptr inbounds nuw i8, ptr %0, i64 8
  %4 = getelementptr inbounds nuw i8, ptr %0, i64 12
  %5 = getelementptr inbounds nuw i8, ptr %0, i64 16
  %6 = getelementptr inbounds nuw i8, ptr %0, i64 20
  tail call void @llvm.memset.p0.i64(ptr noundef nonnull align 8 dereferenceable(16) %3, i8 0, i64 16, i1 false)
  %7 = load ptr, ptr %1, align 8, !tbaa !6
  %8 = getelementptr inbounds nuw i8, ptr %7, i64 200
  %9 = load double, ptr %8, align 8, !tbaa !13
  %10 = fptrunc double %9 to float
  store float %10, ptr %3, align 8, !tbaa !37
  %11 = getelementptr inbounds nuw i8, ptr %7, i64 208
  %12 = load double, ptr %11, align 8, !tbaa !41
  %13 = fptrunc double %12 to float
  store float %13, ptr %4, align 4, !tbaa !42
  %14 = getelementptr inbounds nuw i8, ptr %7, i64 184
  %15 = load double, ptr %14, align 8, !tbaa !43
  %16 = fptrunc double %15 to float
  store float %16, ptr %5, align 8, !tbaa !44
  %17 = getelementptr inbounds nuw i8, ptr %7, i64 192
  %18 = load double, ptr %17, align 8, !tbaa !45
  %19 = fptrunc double %18 to float
  store float %19, ptr %6, align 4, !tbaa !46
  store ptr getelementptr inbounds nuw inrange(-16, 48) (i8, ptr @_ZTVN19OpenColorIO_v2_5dev16RangeMinRendererE, i64 16), ptr %0, align 8, !tbaa !3
  ret void
}